target datalayout = "e-m:e-p270:32:32-p271:32:32-p272:64:64-i64:64-i128:128-f80:128-n8:16:32:64-S128"
target triple = "x86_64-pc-linux-gnu"

%struct.private_ipv4_t = type { i32, i32 }

@pmix_net_private_ipv4 = external global ptr, align 8
@private_ipv4 = internal global ptr null, align 8
@.str = private unnamed_addr constant [58 x i8] c"Unable to allocate memory for the private addresses array\00", align 1
@.str.1 = private unnamed_addr constant [15 x i8] c"%u.%u.%u.%u/%u\00", align 1
@.str.2 = private unnamed_addr constant [19 x i8] c"help-pmix-util.txt\00", align 1
@.str.3 = private unnamed_addr constant [27 x i8] c"malformed net_private_ipv4\00", align 1
@hostname_tsd_key = internal global i32 0, align 4

; Function Attrs: inlinehint nounwind uwtable
define internal i32 @__bswap_32(i32 noundef %0) #6 {
  %2 = alloca i32, align 4
  store i32 %0, ptr %2, align 4, !tbaa !15
  %3 = load i32, ptr %2, align 4, !tbaa !15
  %4 = and i32 %3, -16777216
  %5 = lshr i32 %4, 24
  %6 = load i32, ptr %2, align 4, !tbaa !15
  %7 = and i32 %6, 16711680
  %8 = lshr i32 %7, 8
  %9 = or i32 %5, %8
  %10 = load i32, ptr %2, align 4, !tbaa !15
  %11 = and i32 %10, 65280
  %12 = shl i32 %11, 8
  %13 = or i32 %9, %12
  %14 = load i32, ptr %2, align 4, !tbaa !15
  %15 = and i32 %14, 255
  %16 = shl i32 %15, 24
  %17 = or i32 %13, %16
  ret i32 %17
}

; Function Attrs: nounwind uwtable
define i32 @pmix_net_init() #0 {
  %1 = alloca ptr, align 8
  %2 = alloca ptr, align 8
  %3 = alloca i32, align 4
  %4 = alloca i32, align 4
  %5 = alloca i32, align 4
  %6 = alloca i32, align 4
  %7 = alloca i32, align 4
  %8 = alloca i32, align 4
  %9 = alloca i32, align 4
  %10 = alloca i32, align 4
  %11 = alloca i32, align 4
  call void @llvm.lifetime.start.p0(i64 8, ptr %1) #10
  call void @llvm.lifetime.start.p0(i64 8, ptr %2) #10
  call void @llvm.lifetime.start.p0(i64 4, ptr %3) #10
  call void @llvm.lifetime.start.p0(i64 4, ptr %4) #10
  call void @llvm.lifetime.start.p0(i64 4, ptr %5) #10
  call void @llvm.lifetime.start.p0(i64 4, ptr %6) #10
  call void @llvm.lifetime.start.p0(i64 4, ptr %7) #10
  call void @llvm.lifetime.start.p0(i64 4, ptr %8) #10
  call void @llvm.lifetime.start.p0(i64 4, ptr %9) #10
  call void @llvm.lifetime.start.p0(i64 4, ptr %10) #10
  call void @llvm.lifetime.start.p0(i64 4, ptr %11) #10
  store i32 0, ptr %11, align 4, !tbaa !15
  %12 = load ptr, ptr @pmix_net_private_ipv4, align 8, !tbaa !3
  %13 = call ptr @PMIx_Argv_split(ptr noundef %12, i32 noundef 59)
  store ptr %13, ptr %1, align 8, !tbaa !16
  %14 = load ptr, ptr %1, align 8, !tbaa !16
  %15 = icmp ne ptr null, %14
  br i1 %15, label %16, label %105

16:                                               ; preds = %0
  %17 = load ptr, ptr %1, align 8, !tbaa !16
  %18 = call i32 @PMIx_Argv_count(ptr noundef %17)
  store i32 %18, ptr %10, align 4, !tbaa !15
  %19 = load i32, ptr %10, align 4, !tbaa !15
  %20 = add nsw i32 %19, 1
  %21 = sext i32 %20 to i64
  %22 = mul i64 %21, 8
  %23 = call noalias ptr @malloc(i64 noundef %22) #11
  store ptr %23, ptr @private_ipv4, align 8, !tbaa !18
  %24 = load ptr, ptr @private_ipv4, align 8, !tbaa !18
  %25 = icmp eq ptr null, %24
  br i1 %25, label %26, label %28

26:                                               ; preds = %16
  call void (i32, ptr, ...) @pmix_output(i32 noundef 0, ptr noundef @.str)
  %27 = load ptr, ptr %1, align 8, !tbaa !16
  call void @PMIx_Argv_free(ptr noundef %27)
  br label %106

28:                                               ; preds = %16
  store i32 0, ptr %9, align 4, !tbaa !15
  br label %29

29:                                               ; preds = %90, %28
  %30 = load i32, ptr %9, align 4, !tbaa !15
  %31 = load i32, ptr %10, align 4, !tbaa !15
  %32 = icmp slt i32 %30, %31
  br i1 %32, label %33, label %93

33:                                               ; preds = %29
  %34 = load ptr, ptr %1, align 8, !tbaa !16
  %35 = load i32, ptr %9, align 4, !tbaa !15
  %36 = sext i32 %35 to i64
  %37 = getelementptr inbounds ptr, ptr %34, i64 %36
  %38 = load ptr, ptr %37, align 8, !tbaa !3
  store ptr %38, ptr %2, align 8, !tbaa !3
  %39 = load ptr, ptr %2, align 8, !tbaa !3
  %40 = call i32 (ptr, ptr, ...) @__isoc99_sscanf(ptr noundef %39, ptr noundef @.str.1, ptr noundef %3, ptr noundef %4, ptr noundef %5, ptr noundef %6, ptr noundef %7) #10
  %41 = load i32, ptr %3, align 4, !tbaa !15
  %42 = icmp ugt i32 %41, 255
  br i1 %42, label %55, label %43

43:                                               ; preds = %33
  %44 = load i32, ptr %4, align 4, !tbaa !15
  %45 = icmp ugt i32 %44, 255
  br i1 %45, label %55, label %46

46:                                               ; preds = %43
  %47 = load i32, ptr %5, align 4, !tbaa !15
  %48 = icmp ugt i32 %47, 255
  br i1 %48, label %55, label %49

49:                                               ; preds = %46
  %50 = load i32, ptr %6, align 4, !tbaa !15
  %51 = icmp ugt i32 %50, 255
  br i1 %51, label %55, label %52

52:                                               ; preds = %49
  %53 = load i32, ptr %7, align 4, !tbaa !15
  %54 = icmp ugt i32 %53, 32
  br i1 %54, label %55, label %66

55:                                               ; preds = %52, %49, %46, %43, %33
  %56 = load i32, ptr %11, align 4, !tbaa !15
  %57 = icmp eq i32 0, %56
  br i1 %57, label %58, label %65

58:                                               ; preds = %55
  %59 = load ptr, ptr %1, align 8, !tbaa !16
  %60 = load i32, ptr %9, align 4, !tbaa !15
  %61 = sext i32 %60 to i64
  %62 = getelementptr inbounds ptr, ptr %59, i64 %61
  %63 = load ptr, ptr %62, align 8, !tbaa !3
  %64 = call i32 (ptr, ptr, i32, ...) @pmix_show_help(ptr noundef @.str.2, ptr noundef @.str.3, i32 noundef 1, ptr noundef %63)
  store i32 1, ptr %11, align 4, !tbaa !15
  br label %65

65:                                               ; preds = %58, %55
  br label %90

66:                                               ; preds = %52
  %67 = load i32, ptr %3, align 4, !tbaa !15
  %68 = shl i32 %67, 24
  %69 = load i32, ptr %4, align 4, !tbaa !15
  %70 = shl i32 %69, 16
  %71 = or i32 %68, %70
  %72 = load i32, ptr %5, align 4, !tbaa !15
  %73 = shl i32 %72, 8
  %74 = or i32 %71, %73
  %75 = load i32, ptr %6, align 4, !tbaa !15
  %76 = or i32 %74, %75
  store i32 %76, ptr %8, align 4, !tbaa !15
  %77 = load i32, ptr %8, align 4, !tbaa !15
  %78 = call i32 @__bswap_32(i32 noundef %77)
  %79 = load ptr, ptr @private_ipv4, align 8, !tbaa !18
  %80 = load i32, ptr %9, align 4, !tbaa !15
  %81 = sext i32 %80 to i64
  %82 = getelementptr inbounds %struct.private_ipv4_t, ptr %79, i64 %81
  %83 = getelementptr inbounds nuw %struct.private_ipv4_t, ptr %82, i32 0, i32 0
  store i32 %78, ptr %83, align 4, !tbaa !20
  %84 = load i32, ptr %7, align 4, !tbaa !15
  %85 = load ptr, ptr @private_ipv4, align 8, !tbaa !18
  %86 = load i32, ptr %9, align 4, !tbaa !15
  %87 = sext i32 %86 to i64
  %88 = getelementptr inbounds %struct.private_ipv4_t, ptr %85, i64 %87
  %89 = getelementptr inbounds nuw %struct.private_ipv4_t, ptr %88, i32 0, i32 1
  store i32 %84, ptr %89, align 4, !tbaa !22
  br label %90

90:                                               ; preds = %66, %65
  %91 = load i32, ptr %9, align 4, !tbaa !15
  %92 = add nsw i32 %91, 1
  store i32 %92, ptr %9, align 4, !tbaa !15
  br label %29, !llvm.loop !23

93:                                               ; preds = %29
  %94 = load ptr, ptr @private_ipv4, align 8, !tbaa !18
  %95 = load i32, ptr %9, align 4, !tbaa !15
  %96 = sext i32 %95 to i64
  %97 = getelementptr inbounds %struct.private_ipv4_t, ptr %94, i64 %96
  %98 = getelementptr inbounds nuw %struct.private_ipv4_t, ptr %97, i32 0, i32 0
  store i32 0, ptr %98, align 4, !tbaa !20
  %99 = load ptr, ptr @private_ipv4, align 8, !tbaa !18
  %100 = load i32, ptr %9, align 4, !tbaa !15
  %101 = sext i32 %100 to i64
  %102 = getelementptr inbounds %struct.private_ipv4_t, ptr %99, i64 %101
  %103 = getelementptr inbounds nuw %struct.private_ipv4_t, ptr %102, i32 0, i32 1
  store i32 0, ptr %103, align 4, !tbaa !22
  %104 = load ptr, ptr %1, align 8, !tbaa !16
  call void @PMIx_Argv_free(ptr noundef %104)
  br label %105

105:                                              ; preds = %93, %0
  br label %106

106:                                              ; preds = %105, %26
  %107 = call i32 @pmix_tsd_key_create(ptr noundef @hostname_tsd_key, ptr noundef @hostname_cleanup)
  call void @llvm.lifetime.end.p0(i64 4, ptr %11) #10
  call void @llvm.lifetime.end.p0(i64 4, ptr %10) #10
  call void @llvm.lifetime.end.p0(i64 4, ptr %9) #10
  call void @llvm.lifetime.end.p0(i64 4, ptr %8) #10
  call void @llvm.lifetime.end.p0(i64 4, ptr %7) #10
  call void @llvm.lifetime.end.p0(i64 4, ptr %6) #10
  call void @llvm.lifetime.end.p0(i64 4, ptr %5) #10
  call void @llvm.lifetime.end.p0(i64 4, ptr %4) #10
  call void @llvm.lifetime.end.p0(i64 4, ptr %3) #10
  call void @llvm.lifetime.end.p0(i64 8, ptr %2) #10
  call void @llvm.lifetime.end.p0(i64 8, ptr %1) #10
  ret i32 %107
}