; Function Attrs: nounwind uwtable
define i32 @pmix_net_init() local_unnamed_addr #0 {
  %1 = alloca i32, align 4
  %2 = alloca i32, align 4
  %3 = alloca i32, align 4
  %4 = alloca i32, align 4
  %5 = alloca i32, align 4
  call void @llvm.lifetime.start.p0(i64 4, ptr nonnull %1) #15
  call void @llvm.lifetime.start.p0(i64 4, ptr nonnull %2) #15
  call void @llvm.lifetime.start.p0(i64 4, ptr nonnull %3) #15
  call void @llvm.lifetime.start.p0(i64 4, ptr nonnull %4) #15
  call void @llvm.lifetime.start.p0(i64 4, ptr nonnull %5) #15
  %6 = load ptr, ptr @pmix_net_private_ipv4, align 8, !tbaa !13
  %7 = tail call ptr @PMIx_Argv_split(ptr noundef %6, i32 noundef 59) #15
  %.not = icmp eq ptr %7, null
  br i1 %.not, label %52, label %8

8:                                                ; preds = %0
  %9 = tail call i32 @PMIx_Argv_count(ptr noundef nonnull %7) #15
  %10 = add nsw i32 %9, 1
  %11 = sext i32 %10 to i64
  %12 = shl nsw i64 %11, 3
  %13 = tail call noalias ptr @malloc(i64 noundef %12) #16
  store ptr %13, ptr @private_ipv4, align 8, !tbaa !14
  %14 = icmp eq ptr %13, null
  br i1 %14, label %16, label %.preheader

.preheader:                                       ; preds = %8
  %15 = icmp sgt i32 %9, 0
  br i1 %15, label %.lr.ph.preheader, label %._crit_edge

.lr.ph.preheader:                                 ; preds = %.preheader
  %wide.trip.count = zext nneg i32 %9 to i64
  br label %.lr.ph

16:                                               ; preds = %8
  tail call void (i32, ptr, ...) @pmix_output(i32 noundef 0, ptr noundef nonnull @.str) #15
  tail call void @PMIx_Argv_free(ptr noundef nonnull %7) #15
  br label %52

.lr.ph:                                           ; preds = %.lr.ph.preheader, %47
  %indvars.iv = phi i64 [ 0, %.lr.ph.preheader ], [ %indvars.iv.next, %47 ]
  %.032 = phi i32 [ 0, %.lr.ph.preheader ], [ %.1, %47 ]
  %17 = getelementptr inbounds nuw ptr, ptr %7, i64 %indvars.iv
  %18 = load ptr, ptr %17, align 8, !tbaa !13
  %19 = call i32 (ptr, ptr, ...) @__isoc99_sscanf(ptr noundef %18, ptr noundef nonnull @.str.1, ptr noundef nonnull %1, ptr noundef nonnull %2, ptr noundef nonnull %3, ptr noundef nonnull %4, ptr noundef nonnull %5) #15
  %20 = load i32, ptr %1, align 4, !tbaa !16
  %21 = icmp ugt i32 %20, 255
  %22 = load i32, ptr %2, align 4
  %23 = icmp ugt i32 %22, 255
  %or.cond = select i1 %21, i1 true, i1 %23
  %24 = load i32, ptr %3, align 4
  %25 = icmp ugt i32 %24, 255
  %or.cond3 = select i1 %or.cond, i1 true, i1 %25
  %26 = load i32, ptr %4, align 4
  %27 = icmp ugt i32 %26, 255
  %or.cond5 = select i1 %or.cond3, i1 true, i1 %27
  %28 = load i32, ptr %5, align 4
  %29 = icmp ugt i32 %28, 32
  %or.cond7 = select i1 %or.cond5, i1 true, i1 %29
  br i1 %or.cond7, label %30, label %35

30:                                               ; preds = %.lr.ph
  %31 = icmp eq i32 %.032, 0
  br i1 %31, label %32, label %47

32:                                               ; preds = %30
  %33 = load ptr, ptr %17, align 8, !tbaa !13
  %34 = call i32 (ptr, ptr, i32, ...) @pmix_show_help(ptr noundef nonnull @.str.2, ptr noundef nonnull @.str.3, i32 noundef 1, ptr noundef %33) #15
  br label %47

35:                                               ; preds = %.lr.ph
  %36 = shl nuw i32 %20, 24
  %37 = shl nuw nsw i32 %22, 16
  %38 = or disjoint i32 %37, %36
  %39 = shl nuw nsw i32 %24, 8
  %40 = or disjoint i32 %38, %39
  %41 = or disjoint i32 %40, %26
  %42 = call noundef i32 @llvm.bswap.i32(i32 %41)
  %43 = load ptr, ptr @private_ipv4, align 8, !tbaa !14
  %44 = getelementptr inbounds nuw %struct.private_ipv4_t, ptr %43, i64 %indvars.iv
  store i32 %42, ptr %44, align 4, !tbaa !17
  %45 = load i32, ptr %5, align 4, !tbaa !16
  %46 = getelementptr inbounds nuw %struct.private_ipv4_t, ptr %43, i64 %indvars.iv, i32 1
  store i32 %45, ptr %46, align 4, !tbaa !19
  br label %47

47:                                               ; preds = %30, %32, %35
  %.1 = phi i32 [ 1, %32 ], [ 1, %30 ], [ %.032, %35 ]
  %indvars.iv.next = add nuw nsw i64 %indvars.iv, 1
  %exitcond.not = icmp eq i64 %indvars.iv.next, %wide.trip.count
  br i1 %exitcond.not, label %._crit_edge.loopexit, label %.lr.ph, !llvm.loop !20

._crit_edge.loopexit:                             ; preds = %47
  %.pre = load ptr, ptr @private_ipv4, align 8, !tbaa !14
  %48 = zext nneg i32 %9 to i64
  br label %._crit_edge

._crit_edge:                                      ; preds = %.preheader, %._crit_edge.loopexit
  %49 = phi ptr [ %.pre, %._crit_edge.loopexit ], [ %13, %.preheader ]
  %.025.lcssa = phi i64 [ %48, %._crit_edge.loopexit ], [ 0, %.preheader ]
  %50 = getelementptr inbounds nuw %struct.private_ipv4_t, ptr %49, i64 %.025.lcssa
  store i32 0, ptr %50, align 4, !tbaa !17
  %51 = getelementptr inbounds nuw %struct.private_ipv4_t, ptr %49, i64 %.025.lcssa, i32 1
  store i32 0, ptr %51, align 4, !tbaa !19
  call void @PMIx_Argv_free(ptr noundef nonnull %7) #15
  br label %52

52:                                               ; preds = %0, %._crit_edge, %16
  %53 = call i32 @pmix_tsd_key_create(ptr noundef nonnull @hostname_tsd_key, ptr noundef nonnull @hostname_cleanup) #15
  call void @llvm.lifetime.end.p0(i64 4, ptr nonnull %5) #15
  call void @llvm.lifetime.end.p0(i64 4, ptr nonnull %4) #15
  call void @llvm.lifetime.end.p0(i64 4, ptr nonnull %3) #15
  call void @llvm.lifetime.end.p0(i64 4, ptr nonnull %2) #15
  call void @llvm.lifetime.end.p0(i64 4, ptr nonnull %1) #15
  ret i32 %53
}